; ModuleID = '43/531.c'
source_filename = "43/531.c"
target datalayout = "e-m:e-p270:32:32-p271:32:32-p272:64:64-i64:64-f80:128-n8:16:32:64-S128"
target triple = "x86_64-pc-linux-gnu"

@.str = private unnamed_addr constant [3 x i8] c"%d\00", align 1
@.str.1 = private unnamed_addr constant [7 x i8] c"%d %d\0A\00", align 1

; Function Attrs: noinline nounwind uwtable
define dso_local i32 @main(i32 %0, i8** %1) #0 {
  %3 = alloca i32, align 4
  %4 = alloca i32, align 4
  %5 = alloca i8**, align 8
  %6 = alloca i32, align 4
  %7 = alloca i32, align 4
  %8 = alloca i32, align 4
  %9 = alloca i32, align 4
  %10 = alloca i32, align 4
  store i32 0, i32* %3, align 4
  store i32 %0, i32* %4, align 4
  store i8** %1, i8*** %5, align 8
  %11 = call i32 (i8*, ...) @__isoc99_scanf(i8* getelementptr inbounds ([3 x i8], [3 x i8]* @.str, i64 0, i64 0), i32* %6)
  store i32 3, i32* %8, align 4
  br label %12

12:                                               ; preds = %75, %2
  %13 = load i32, i32* %8, align 4
  %14 = load i32, i32* %6, align 4
  %15 = sdiv i32 %14, 2
  %16 = icmp sle i32 %13, %15
  br i1 %16, label %17, label %78

17:                                               ; preds = %12
  store i32 0, i32* %9, align 4
  store i32 2, i32* %7, align 4
  br label %18

18:                                               ; preds = %31, %17
  %19 = load i32, i32* %7, align 4
  %20 = load i32, i32* %8, align 4
  %21 = icmp slt i32 %19, %20
  br i1 %21, label %22, label %34

22:                                               ; preds = %18
  %23 = load i32, i32* %8, align 4
  %24 = load i32, i32* %7, align 4
  %25 = srem i32 %23, %24
  %26 = icmp ne i32 %25, 0
  br i1 %26, label %27, label %30

27:                                               ; preds = %22
  %28 = load i32, i32* %9, align 4
  %29 = add nsw i32 %28, 1
  store i32 %29, i32* %9, align 4
  br label %30

30:                                               ; preds = %27, %22
  br label %31

31:                                               ; preds = %30
  %32 = load i32, i32* %7, align 4
  %33 = add nsw i32 %32, 1
  store i32 %33, i32* %7, align 4
  br label %18

34:                                               ; preds = %18
  %35 = load i32, i32* %9, align 4
  %36 = load i32, i32* %8, align 4
  %37 = sub nsw i32 %36, 2
  %38 = icmp eq i32 %35, %37
  br i1 %38, label %39, label %74

39:                                               ; preds = %34
  store i32 0, i32* %10, align 4
  store i32 2, i32* %7, align 4
  br label %40

40:                                               ; preds = %57, %39
  %41 = load i32, i32* %7, align 4
  %42 = load i32, i32* %6, align 4
  %43 = load i32, i32* %8, align 4
  %44 = sub nsw i32 %42, %43
  %45 = icmp slt i32 %41, %44
  br i1 %45, label %46, label %60

46:                                               ; preds = %40
  %47 = load i32, i32* %6, align 4
  %48 = load i32, i32* %8, align 4
  %49 = sub nsw i32 %47, %48
  %50 = load i32, i32* %7, align 4
  %51 = srem i32 %49, %50
  %52 = icmp ne i32 %51, 0
  br i1 %52, label %53, label %56

53:                                               ; preds = %46
  %54 = load i32, i32* %10, align 4
  %55 = add nsw i32 %54, 1
  store i32 %55, i32* %10, align 4
  br label %56

56:                                               ; preds = %53, %46
  br label %57

57:                                               ; preds = %56
  %58 = load i32, i32* %7, align 4
  %59 = add nsw i32 %58, 1
  store i32 %59, i32* %7, align 4
  br label %40

60:                                               ; preds = %40
  %61 = load i32, i32* %10, align 4
  %62 = load i32, i32* %6, align 4
  %63 = load i32, i32* %8, align 4
  %64 = sub nsw i32 %62, %63
  %65 = sub nsw i32 %64, 2
  %66 = icmp eq i32 %61, %65
  br i1 %66, label %67, label %73

67:                                               ; preds = %60
  %68 = load i32, i32* %8, align 4
  %69 = load i32, i32* %6, align 4
  %70 = load i32, i32* %8, align 4
  %71 = sub nsw i32 %69, %70
  %72 = call i32 (i8*, ...) @printf(i8* getelementptr inbounds ([7 x i8], [7 x i8]* @.str.1, i64 0, i64 0), i32 %68, i32 %71)
  br label %73

73:                                               ; preds = %67, %60
  br label %74

74:                                               ; preds = %73, %34
  br label %75

75:                                               ; preds = %74
  %76 = load i32, i32* %8, align 4
  %77 = add nsw i32 %76, 1
  store i32 %77, i32* %8, align 4
  br label %12

78:                                               ; preds = %12
  ret i32 0
}

declare dso_local i32 @__isoc99_scanf(i8*, ...) #1

declare dso_local i32 @printf(i8*, ...) #1


!llvm.module.flags = !{!0}
!llvm.ident = !{!1}

!0 = !{i32 1, !"wchar_size", i32 4}
!1 = !{!"clang version 10.0.0-4ubuntu1 "}
